target datalayout = "e-m:e-p270:32:32-p271:32:32-p272:64:64-i64:64-i128:128-f80:128-n8:16:32:64-S128"
target triple = "x86_64-pc-linux-gnu"

%struct.DdManager = type { %struct.DdNode, ptr, ptr, ptr, ptr, ptr, ptr, ptr, i32, i32, double, double, double, i32, i32, i32, i32, i32, i32, ptr, ptr, %struct.DdSubtable, i32, i32, i32, i32, i32, i32, i32, double, i32, i32, i32, ptr, i64, double, i32, ptr, ptr, ptr, ptr, ptr, ptr, ptr, i32, ptr, ptr, ptr, ptr, ptr, ptr, i32, i32, i32, double, i32, i32, i32, i32, double, double, i32, i32, i32, i32, i32, i32, i32, i32, i32, ptr, ptr, i32, i32, i32, i32, i32, i32, ptr, ptr, ptr, ptr, ptr, ptr, ptr, ptr, i32, i64, i64, i64, i32, i64, i64, double, double, double, double, double, double, i32, ptr, ptr, i64 }
%struct.DdNode = type { i32, i32, ptr, %union.anon, i64 }
%union.anon = type { %struct.DdChildren }
%struct.DdChildren = type { ptr, ptr }
%struct.DdSubtable = type { ptr, i32, i32, i32, i32, i32, i32, i32, i32, i32, i32, i32 }

@.str.62 = private unnamed_addr constant [4 x i8] c"BDD\00", align 1
@.str.63 = private unnamed_addr constant [21 x i8] c"%ld nodes in %g sec\0A\00", align 1

; Function Attrs: nounwind uwtable
define i64 @Cudd_zddReadNodeCount(ptr noundef %0) #0 {
  %2 = alloca ptr, align 8
  store ptr %0, ptr %2, align 8
  %3 = load ptr, ptr %2, align 8
  %4 = getelementptr inbounds %struct.DdManager, ptr %3, i32 0, i32 24
  %5 = load i32, ptr %4, align 8
  %6 = load ptr, ptr %2, align 8
  %7 = getelementptr inbounds %struct.DdManager, ptr %6, i32 0, i32 26
  %8 = load i32, ptr %7, align 8
  %9 = sub i32 %5, %8
  %10 = add i32 %9, 2
  %11 = zext i32 %10 to i64
  ret i64 %11
}

; Function Attrs: nounwind uwtable
define i64 @Cudd_ReadNodeCount(ptr noundef %0) #0 {
  %2 = alloca ptr, align 8
  %3 = alloca i64, align 8
  %4 = alloca i32, align 4
  store ptr %0, ptr %2, align 8
  %5 = load ptr, ptr %2, align 8
  call void @cuddClearDeathRow(ptr noundef %5)
  %6 = load ptr, ptr %2, align 8
  %7 = getelementptr inbounds %struct.DdManager, ptr %6, i32 0, i32 23
  %8 = load i32, ptr %7, align 4
  %9 = load ptr, ptr %2, align 8
  %10 = getelementptr inbounds %struct.DdManager, ptr %9, i32 0, i32 25
  %11 = load i32, ptr %10, align 4
  %12 = sub i32 %8, %11
  %13 = zext i32 %12 to i64
  store i64 %13, ptr %3, align 8
  store i32 0, ptr %4, align 4
  br label %14

14:                                               ; preds = %35, %1
  %15 = load i32, ptr %4, align 4
  %16 = load ptr, ptr %2, align 8
  %17 = getelementptr inbounds %struct.DdManager, ptr %16, i32 0, i32 15
  %18 = load i32, ptr %17, align 8
  %19 = icmp slt i32 %15, %18
  br i1 %19, label %20, label %38

20:                                               ; preds = %14
  %21 = load ptr, ptr %2, align 8
  %22 = getelementptr inbounds %struct.DdManager, ptr %21, i32 0, i32 41
  %23 = load ptr, ptr %22, align 8
  %24 = load i32, ptr %4, align 4
  %25 = sext i32 %24 to i64
  %26 = getelementptr inbounds ptr, ptr %23, i64 %25
  %27 = load ptr, ptr %26, align 8
  %28 = getelementptr inbounds %struct.DdNode, ptr %27, i32 0, i32 1
  %29 = load i32, ptr %28, align 4
  %30 = icmp eq i32 %29, 1
  br i1 %30, label %31, label %34

31:                                               ; preds = %20
  %32 = load i64, ptr %3, align 8
  %33 = add nsw i64 %32, -1
  store i64 %33, ptr %3, align 8
  br label %34

34:                                               ; preds = %31, %20
  br label %35

35:                                               ; preds = %34
  %36 = load i32, ptr %4, align 4
  %37 = add nsw i32 %36, 1
  store i32 %37, ptr %4, align 4
  br label %14, !llvm.loop !30

38:                                               ; preds = %14
  %39 = load ptr, ptr %2, align 8
  %40 = getelementptr inbounds %struct.DdManager, ptr %39, i32 0, i32 2
  %41 = load ptr, ptr %40, align 8
  %42 = getelementptr inbounds %struct.DdNode, ptr %41, i32 0, i32 1
  %43 = load i32, ptr %42, align 4
  %44 = icmp eq i32 %43, 1
  br i1 %44, label %45, label %48

45:                                               ; preds = %38
  %46 = load i64, ptr %3, align 8
  %47 = add nsw i64 %46, -1
  store i64 %47, ptr %3, align 8
  br label %48

48:                                               ; preds = %45, %38
  %49 = load ptr, ptr %2, align 8
  %50 = getelementptr inbounds %struct.DdManager, ptr %49, i32 0, i32 3
  %51 = load ptr, ptr %50, align 8
  %52 = getelementptr inbounds %struct.DdNode, ptr %51, i32 0, i32 1
  %53 = load i32, ptr %52, align 4
  %54 = icmp eq i32 %53, 1
  br i1 %54, label %55, label %58

55:                                               ; preds = %48
  %56 = load i64, ptr %3, align 8
  %57 = add nsw i64 %56, -1
  store i64 %57, ptr %3, align 8
  br label %58

58:                                               ; preds = %55, %48
  %59 = load ptr, ptr %2, align 8
  %60 = getelementptr inbounds %struct.DdManager, ptr %59, i32 0, i32 4
  %61 = load ptr, ptr %60, align 8
  %62 = getelementptr inbounds %struct.DdNode, ptr %61, i32 0, i32 1
  %63 = load i32, ptr %62, align 4
  %64 = icmp eq i32 %63, 1
  br i1 %64, label %65, label %68

65:                                               ; preds = %58
  %66 = load i64, ptr %3, align 8
  %67 = add nsw i64 %66, -1
  store i64 %67, ptr %3, align 8
  br label %68

68:                                               ; preds = %65, %58
  %69 = load i64, ptr %3, align 8
  ret i64 %69
}

; Function Attrs: nounwind uwtable
define i32 @Cudd_StdPostReordHook(ptr noundef %0, ptr noundef %1, ptr noundef %2) #0 {
  %4 = alloca i32, align 4
  %5 = alloca ptr, align 8
  %6 = alloca ptr, align 8
  %7 = alloca ptr, align 8
  %8 = alloca i64, align 8
  %9 = alloca i32, align 4
  %10 = alloca i64, align 8
  %11 = alloca double, align 8
  store ptr %0, ptr %5, align 8
  store ptr %1, ptr %6, align 8
  store ptr %2, ptr %7, align 8
  %12 = load ptr, ptr %7, align 8
  %13 = ptrtoint ptr %12 to i64
  store i64 %13, ptr %8, align 8
  %14 = call i64 (...) @Extra_CpuTime()
  store i64 %14, ptr %10, align 8
  %15 = load i64, ptr %10, align 8
  %16 = load i64, ptr %8, align 8
  %17 = sub nsw i64 %15, %16
  %18 = sitofp i64 %17 to double
  %19 = fdiv double %18, 1.000000e+03
  store double %19, ptr %11, align 8
  %20 = load ptr, ptr %5, align 8
  %21 = getelementptr inbounds %struct.DdManager, ptr %20, i32 0, i32 84
  %22 = load ptr, ptr %21, align 8
  %23 = load ptr, ptr %6, align 8
  %24 = call i32 @strcmp(ptr noundef %23, ptr noundef @.str.62) #10
  %25 = icmp eq i32 %24, 0
  br i1 %25, label %26, label %29

26:                                               ; preds = %3
  %27 = load ptr, ptr %5, align 8
  %28 = call i64 @Cudd_ReadNodeCount(ptr noundef %27)
  br label %32

29:                                               ; preds = %3
  %30 = load ptr, ptr %5, align 8
  %31 = call i64 @Cudd_zddReadNodeCount(ptr noundef %30)
  br label %32

32:                                               ; preds = %29, %26
  %33 = phi i64 [ %28, %26 ], [ %31, %29 ]
  %34 = load double, ptr %11, align 8
  %35 = call i32 (ptr, ptr, ...) @fprintf(ptr noundef %22, ptr noundef @.str.63, i64 noundef %33, double noundef %34) #8
  store i32 %35, ptr %9, align 4
  %36 = load i32, ptr %9, align 4
  %37 = icmp eq i32 %36, -1
  br i1 %37, label %38, label %39

38:                                               ; preds = %32
  store i32 0, ptr %4, align 4
  br label %48

39:                                               ; preds = %32
  %40 = load ptr, ptr %5, align 8
  %41 = getelementptr inbounds %struct.DdManager, ptr %40, i32 0, i32 84
  %42 = load ptr, ptr %41, align 8
  %43 = call i32 @fflush(ptr noundef %42)
  store i32 %43, ptr %9, align 4
  %44 = load i32, ptr %9, align 4
  %45 = icmp eq i32 %44, -1
  br i1 %45, label %46, label %47

46:                                               ; preds = %39
  store i32 0, ptr %4, align 4
  br label %48

47:                                               ; preds = %39
  store i32 1, ptr %4, align 4
  br label %48

48:                                               ; preds = %47, %46, %38
  %49 = load i32, ptr %4, align 4
  ret i32 %49
}