; Function Attrs: nounwind uwtable
define range(i32 0, 2) i32 @Cudd_StdPostReordHook(ptr noundef %0, ptr noundef readonly captures(none) %1, ptr noundef %2) #0 {
  %4 = ptrtoint ptr %2 to i64
  %5 = tail call i64 (...) @Extra_CpuTime() #20
  %6 = sub nsw i64 %5, %4
  %7 = sitofp i64 %6 to double
  %8 = fdiv double %7, 1.000000e+03
  %9 = getelementptr inbounds nuw i8, ptr %0, i64 608
  %10 = load ptr, ptr %9, align 8
  %11 = tail call i32 @strcmp(ptr noundef nonnull dereferenceable(1) %1, ptr noundef nonnull dereferenceable(4) @.str.62) #23
  %12 = icmp eq i32 %11, 0
  br i1 %12, label %13, label %50

13:                                               ; preds = %3
  tail call void @cuddClearDeathRow(ptr noundef nonnull %0) #20
  %14 = getelementptr inbounds nuw i8, ptr %0, i64 228
  %15 = load i32, ptr %14, align 4
  %16 = getelementptr inbounds nuw i8, ptr %0, i64 236
  %17 = load i32, ptr %16, align 4
  %18 = sub i32 %15, %17
  %19 = zext i32 %18 to i64
  %20 = getelementptr inbounds nuw i8, ptr %0, i64 136
  %21 = load i32, ptr %20, align 8
  %22 = icmp sgt i32 %21, 0
  br i1 %22, label %.lr.ph.i, label %Cudd_ReadNodeCount.exit

.lr.ph.i:                                         ; preds = %13
  %23 = getelementptr inbounds nuw i8, ptr %0, i64 344
  %24 = load ptr, ptr %23, align 8
  %wide.trip.count.i = zext nneg i32 %21 to i64
  br label %25

25:                                               ; preds = %25, %.lr.ph.i
  %indvars.iv.i = phi i64 [ 0, %.lr.ph.i ], [ %indvars.iv.next.i, %25 ]
  %.01517.i = phi i64 [ %19, %.lr.ph.i ], [ %spec.select.i, %25 ]
  %26 = getelementptr inbounds nuw ptr, ptr %24, i64 %indvars.iv.i
  %27 = load ptr, ptr %26, align 8
  %28 = getelementptr inbounds nuw i8, ptr %27, i64 4
  %29 = load i32, ptr %28, align 4
  %30 = icmp eq i32 %29, 1
  %31 = sext i1 %30 to i64
  %spec.select.i = add nsw i64 %.01517.i, %31
  %indvars.iv.next.i = add nuw nsw i64 %indvars.iv.i, 1
  %exitcond.not.i = icmp eq i64 %indvars.iv.next.i, %wide.trip.count.i
  br i1 %exitcond.not.i, label %Cudd_ReadNodeCount.exit, label %25, !llvm.loop !29

Cudd_ReadNodeCount.exit:                          ; preds = %25, %13
  %.015.lcssa.i = phi i64 [ %19, %13 ], [ %spec.select.i, %25 ]
  %32 = getelementptr inbounds nuw i8, ptr %0, i64 48
  %33 = load ptr, ptr %32, align 8
  %34 = getelementptr inbounds nuw i8, ptr %33, i64 4
  %35 = load i32, ptr %34, align 4
  %36 = icmp eq i32 %35, 1
  %37 = sext i1 %36 to i64
  %spec.select16.i = add nsw i64 %.015.lcssa.i, %37
  %38 = getelementptr inbounds nuw i8, ptr %0, i64 56
  %39 = load ptr, ptr %38, align 8
  %40 = getelementptr inbounds nuw i8, ptr %39, i64 4
  %41 = load i32, ptr %40, align 4
  %42 = icmp eq i32 %41, 1
  %43 = sext i1 %42 to i64
  %.3.i = add nsw i64 %spec.select16.i, %43
  %44 = getelementptr inbounds nuw i8, ptr %0, i64 64
  %45 = load ptr, ptr %44, align 8
  %46 = getelementptr inbounds nuw i8, ptr %45, i64 4
  %47 = load i32, ptr %46, align 4
  %48 = icmp eq i32 %47, 1
  %49 = sext i1 %48 to i64
  %.4.i = add nsw i64 %.3.i, %49
  br label %58

50:                                               ; preds = %3
  %51 = getelementptr inbounds nuw i8, ptr %0, i64 232
  %52 = load i32, ptr %51, align 8
  %53 = getelementptr inbounds nuw i8, ptr %0, i64 240
  %54 = load i32, ptr %53, align 8
  %55 = add i32 %52, 2
  %56 = sub i32 %55, %54
  %57 = zext i32 %56 to i64
  br label %58

58:                                               ; preds = %50, %Cudd_ReadNodeCount.exit
  %59 = phi i64 [ %.4.i, %Cudd_ReadNodeCount.exit ], [ %57, %50 ]
  %60 = tail call i32 (ptr, ptr, ...) @fprintf(ptr noundef %10, ptr noundef nonnull @.str.63, i64 noundef %59, double noundef %8) #20
  %61 = icmp eq i32 %60, -1
  br i1 %61, label %66, label %62

62:                                               ; preds = %58
  %63 = load ptr, ptr %9, align 8
  %64 = tail call i32 @fflush(ptr noundef %63)
  %65 = icmp ne i32 %64, -1
  %. = zext i1 %65 to i32
  br label %66

66:                                               ; preds = %62, %58
  %.0 = phi i32 [ 0, %58 ], [ %., %62 ]
  ret i32 %.0
}